target datalayout = "e-m:e-p270:32:32-p271:32:32-p272:64:64-i64:64-i128:128-f80:128-n8:16:32:64-S128"
target triple = "x86_64-pc-linux-gnu"

%struct.UConverterSharedData = type { i32, i32, ptr, ptr, i8, i8, ptr, i32, %struct.UConverterMBCSTable }
%struct.UConverterMBCSTable = type { i8, i8, i8, i32, ptr, ptr, ptr, ptr, ptr, ptr, [64 x i16], ptr, ptr, i32, i8, i8, i8, i16, i32, ptr, ptr, ptr, ptr }
%struct.UConverterStaticData = type { i32, [60 x i8], i32, i8, i8, i8, i8, [4 x i8], i8, i8, i8, i8, i8, [19 x i8] }

@_ZL21SHARED_DATA_HASHTABLE = internal global ptr null, align 8

; Function Attrs: inlinehint mustprogress nounwind uwtable
define internal noundef signext i8 @_ZL9U_FAILURE10UErrorCode(i32 noundef %0) #3 {
  %2 = alloca i32, align 4
  store i32 %0, ptr %2, align 4, !tbaa !9
  %3 = load i32, ptr %2, align 4, !tbaa !9
  %4 = icmp sgt i32 %3, 0
  %5 = zext i1 %4 to i8
  ret i8 %5
}

; Function Attrs: mustprogress uwtable
define void @ucnv_enableCleanup_77() #0 {
  call void @ucln_common_registerCleanup_77(i32 noundef 21, ptr noundef @_ZL12ucnv_cleanupv)
  ret void
}

; Function Attrs: mustprogress uwtable
define internal void @_ZL23ucnv_shareConverterDataP20UConverterSharedData(ptr noundef %0) #0 {
  %2 = alloca ptr, align 8
  %3 = alloca i32, align 4
  %4 = alloca i32, align 4
  store ptr %0, ptr %2, align 8, !tbaa !18
  call void @llvm.lifetime.start.p0(i64 4, ptr %3) #12
  store i32 0, ptr %3, align 4, !tbaa !9
  %5 = load ptr, ptr @_ZL21SHARED_DATA_HASHTABLE, align 8, !tbaa !3
  %6 = icmp eq ptr %5, null
  br i1 %6, label %7, label %17

7:                                                ; preds = %1
  %8 = call zeroext i16 @ucnv_io_countKnownConverters_77(ptr noundef %3)
  %9 = zext i16 %8 to i32
  %10 = mul nsw i32 %9, 2
  %11 = call ptr @uhash_openSize_77(ptr noundef @uhash_hashChars_77, ptr noundef @uhash_compareChars_77, ptr noundef null, i32 noundef %10, ptr noundef %3)
  store ptr %11, ptr @_ZL21SHARED_DATA_HASHTABLE, align 8, !tbaa !3
  call void @ucnv_enableCleanup_77()
  %12 = load i32, ptr %3, align 4, !tbaa !9
  %13 = call noundef signext i8 @_ZL9U_FAILURE10UErrorCode(i32 noundef %12)
  %14 = icmp ne i8 %13, 0
  br i1 %14, label %15, label %16

15:                                               ; preds = %7
  store i32 1, ptr %4, align 4
  br label %28

16:                                               ; preds = %7
  br label %17

17:                                               ; preds = %16, %1
  %18 = load ptr, ptr %2, align 8, !tbaa !18
  %19 = getelementptr inbounds nuw %struct.UConverterSharedData, ptr %18, i32 0, i32 4
  store i8 1, ptr %19, align 8, !tbaa !32
  %20 = load ptr, ptr @_ZL21SHARED_DATA_HASHTABLE, align 8, !tbaa !3
  %21 = load ptr, ptr %2, align 8, !tbaa !18
  %22 = getelementptr inbounds nuw %struct.UConverterSharedData, ptr %21, i32 0, i32 3
  %23 = load ptr, ptr %22, align 8, !tbaa !33
  %24 = getelementptr inbounds nuw %struct.UConverterStaticData, ptr %23, i32 0, i32 1
  %25 = getelementptr inbounds [60 x i8], ptr %24, i64 0, i64 0
  %26 = load ptr, ptr %2, align 8, !tbaa !18
  %27 = call ptr @uhash_put_77(ptr noundef %20, ptr noundef %25, ptr noundef %26, ptr noundef %3)
  store i32 0, ptr %4, align 4
  br label %28

28:                                               ; preds = %17, %15
  call void @llvm.lifetime.end.p0(i64 4, ptr %3) #12
  %29 = load i32, ptr %4, align 4
  switch i32 %29, label %31 [
    i32 0, label %30
    i32 1, label %30
  ]

30:                                               ; preds = %28, %28
  ret void

31:                                               ; preds = %28
  unreachable
}