; Function Attrs: mustprogress uwtable
define internal fastcc void @_ZL23ucnv_shareConverterDataP20UConverterSharedData(ptr noundef nonnull %0) unnamed_addr #0 {
  %2 = alloca i32, align 4
  call void @llvm.lifetime.start.p0(i64 4, ptr nonnull %2) #11
  store i32 0, ptr %2, align 4, !tbaa !13
  %3 = load ptr, ptr @_ZL21SHARED_DATA_HASHTABLE, align 8, !tbaa !3
  %4 = icmp eq ptr %3, null
  br i1 %4, label %5, label %12

5:                                                ; preds = %1
  %6 = call zeroext i16 @ucnv_io_countKnownConverters_77(ptr noundef nonnull %2)
  %7 = zext i16 %6 to i32
  %8 = shl nuw nsw i32 %7, 1
  %9 = call ptr @uhash_openSize_77(ptr noundef nonnull @uhash_hashChars_77, ptr noundef nonnull @uhash_compareChars_77, ptr noundef null, i32 noundef %8, ptr noundef nonnull %2)
  store ptr %9, ptr @_ZL21SHARED_DATA_HASHTABLE, align 8, !tbaa !3
  call void @ucln_common_registerCleanup_77(i32 noundef 21, ptr noundef nonnull @_ZL12ucnv_cleanupv)
  %10 = load i32, ptr %2, align 4, !tbaa !13
  %11 = icmp slt i32 %10, 1
  br i1 %11, label %._crit_edge, label %19

._crit_edge:                                      ; preds = %5
  %.pre = load ptr, ptr @_ZL21SHARED_DATA_HASHTABLE, align 8, !tbaa !3
  br label %12

12:                                               ; preds = %._crit_edge, %1
  %13 = phi ptr [ %.pre, %._crit_edge ], [ %3, %1 ]
  %14 = getelementptr inbounds nuw i8, ptr %0, i64 24
  store i8 1, ptr %14, align 8, !tbaa !37
  %15 = getelementptr inbounds nuw i8, ptr %0, i64 16
  %16 = load ptr, ptr %15, align 8, !tbaa !36
  %17 = getelementptr inbounds nuw i8, ptr %16, i64 4
  %18 = call ptr @uhash_put_77(ptr noundef %13, ptr noundef nonnull %17, ptr noundef nonnull %0, ptr noundef nonnull %2)
  br label %19

19:                                               ; preds = %5, %12
  call void @llvm.lifetime.end.p0(i64 4, ptr nonnull %2) #11
  ret void
}